target datalayout = "e-m:e-p270:32:32-p271:32:32-p272:64:64-i64:64-i128:128-f80:128-n8:16:32:64-S128"
target triple = "x86_64-pc-linux-gnu"

%struct.Abc_Ntk_t_ = type { i32, i32, ptr, ptr, ptr, ptr, ptr, ptr, ptr, ptr, ptr, ptr, ptr, [11 x i32], i32, i32, i32, i32, ptr, i32, ptr, ptr, i32, i32, i32, double, i32, %struct.Vec_Int_t_, ptr, ptr, ptr, ptr, ptr, float, i32, ptr, ptr, ptr, ptr, ptr, ptr, ptr, ptr, ptr, ptr, ptr, ptr, ptr, ptr, ptr, ptr, ptr, ptr, ptr, ptr, ptr, ptr }
%struct.Vec_Int_t_ = type { i32, i32, ptr }
%struct.Abc_Obj_t_ = type { ptr, ptr, i32, i32, %struct.Vec_Int_t_, %struct.Vec_Int_t_, %union.anon, %union.anon.0 }
%union.anon = type { ptr }
%union.anon.0 = type { ptr }
%struct.Vec_Ptr_t_ = type { i32, i32, ptr }

@.str.4 = private unnamed_addr constant [45 x i8] c"Abc_NtkMiter: The network check has failed.\0A\00", align 1

; Function Attrs: inlinehint nounwind uwtable
define internal ptr @Vec_PtrEntry(ptr noundef %0, i32 noundef %1) #3 {
  %3 = alloca ptr, align 8
  %4 = alloca i32, align 4
  store ptr %0, ptr %3, align 8, !tbaa !31
  store i32 %1, ptr %4, align 4, !tbaa !8
  %5 = load ptr, ptr %3, align 8, !tbaa !31
  %6 = getelementptr inbounds nuw %struct.Vec_Ptr_t_, ptr %5, i32 0, i32 2
  %7 = load ptr, ptr %6, align 8, !tbaa !36
  %8 = load i32, ptr %4, align 4, !tbaa !8
  %9 = sext i32 %8 to i64
  %10 = getelementptr inbounds ptr, ptr %7, i64 %9
  %11 = load ptr, ptr %10, align 8, !tbaa !37
  ret ptr %11
}

; Function Attrs: inlinehint nounwind uwtable
define internal ptr @Abc_NtkPo(ptr noundef %0, i32 noundef %1) #3 {
  %3 = alloca ptr, align 8
  %4 = alloca i32, align 4
  store ptr %0, ptr %3, align 8, !tbaa !3
  store i32 %1, ptr %4, align 4, !tbaa !8
  %5 = load ptr, ptr %3, align 8, !tbaa !3
  %6 = getelementptr inbounds nuw %struct.Abc_Ntk_t_, ptr %5, i32 0, i32 7
  %7 = load ptr, ptr %6, align 8, !tbaa !47
  %8 = load i32, ptr %4, align 4, !tbaa !8
  %9 = call ptr @Vec_PtrEntry(ptr noundef %7, i32 noundef %8)
  ret ptr %9
}

; Function Attrs: inlinehint nounwind uwtable
define internal ptr @Abc_ObjNotCond(ptr noundef %0, i32 noundef %1) #3 {
  %3 = alloca ptr, align 8
  %4 = alloca i32, align 4
  store ptr %0, ptr %3, align 8, !tbaa !28
  store i32 %1, ptr %4, align 4, !tbaa !8
  %5 = load ptr, ptr %3, align 8, !tbaa !28
  %6 = ptrtoint ptr %5 to i64
  %7 = load i32, ptr %4, align 4, !tbaa !8
  %8 = icmp ne i32 %7, 0
  %9 = zext i1 %8 to i32
  %10 = sext i32 %9 to i64
  %11 = xor i64 %6, %10
  %12 = inttoptr i64 %11 to ptr
  ret ptr %12
}

; Function Attrs: inlinehint nounwind uwtable
define internal i32 @Abc_ObjFaninC0(ptr noundef %0) #3 {
  %2 = alloca ptr, align 8
  store ptr %0, ptr %2, align 8, !tbaa !28
  %3 = load ptr, ptr %2, align 8, !tbaa !28
  %4 = getelementptr inbounds nuw %struct.Abc_Obj_t_, ptr %3, i32 0, i32 3
  %5 = load i32, ptr %4, align 4
  %6 = lshr i32 %5, 10
  %7 = and i32 %6, 1
  ret i32 %7
}

; Function Attrs: inlinehint nounwind uwtable
define internal ptr @Abc_ObjFanin0(ptr noundef %0) #3 {
  %2 = alloca ptr, align 8
  store ptr %0, ptr %2, align 8, !tbaa !28
  %3 = load ptr, ptr %2, align 8, !tbaa !28
  %4 = getelementptr inbounds nuw %struct.Abc_Obj_t_, ptr %3, i32 0, i32 0
  %5 = load ptr, ptr %4, align 8, !tbaa !48
  %6 = getelementptr inbounds nuw %struct.Abc_Ntk_t_, ptr %5, i32 0, i32 5
  %7 = load ptr, ptr %6, align 8, !tbaa !45
  %8 = getelementptr inbounds nuw %struct.Vec_Ptr_t_, ptr %7, i32 0, i32 2
  %9 = load ptr, ptr %8, align 8, !tbaa !36
  %10 = load ptr, ptr %2, align 8, !tbaa !28
  %11 = getelementptr inbounds nuw %struct.Abc_Obj_t_, ptr %10, i32 0, i32 4
  %12 = getelementptr inbounds nuw %struct.Vec_Int_t_, ptr %11, i32 0, i32 2
  %13 = load ptr, ptr %12, align 8, !tbaa !50
  %14 = getelementptr inbounds i32, ptr %13, i64 0
  %15 = load i32, ptr %14, align 4, !tbaa !8
  %16 = sext i32 %15 to i64
  %17 = getelementptr inbounds ptr, ptr %9, i64 %16
  %18 = load ptr, ptr %17, align 8, !tbaa !37
  ret ptr %18
}

; Function Attrs: inlinehint nounwind uwtable
define internal ptr @Abc_NtkCi(ptr noundef %0, i32 noundef %1) #3 {
  %3 = alloca ptr, align 8
  %4 = alloca i32, align 4
  store ptr %0, ptr %3, align 8, !tbaa !3
  store i32 %1, ptr %4, align 4, !tbaa !8
  %5 = load ptr, ptr %3, align 8, !tbaa !3
  %6 = getelementptr inbounds nuw %struct.Abc_Ntk_t_, ptr %5, i32 0, i32 8
  %7 = load ptr, ptr %6, align 8, !tbaa !56
  %8 = load i32, ptr %4, align 4, !tbaa !8
  %9 = call ptr @Vec_PtrEntry(ptr noundef %7, i32 noundef %8)
  ret ptr %9
}

; Function Attrs: inlinehint nounwind uwtable
define internal ptr @Abc_ObjNot(ptr noundef %0) #3 {
  %2 = alloca ptr, align 8
  store ptr %0, ptr %2, align 8, !tbaa !28
  %3 = load ptr, ptr %2, align 8, !tbaa !28
  %4 = ptrtoint ptr %3 to i64
  %5 = xor i64 %4, 1
  %6 = inttoptr i64 %5 to ptr
  ret ptr %6
}

; Function Attrs: inlinehint nounwind uwtable
define internal ptr @Abc_NtkCo(ptr noundef %0, i32 noundef %1) #3 {
  %3 = alloca ptr, align 8
  %4 = alloca i32, align 4
  store ptr %0, ptr %3, align 8, !tbaa !3
  store i32 %1, ptr %4, align 4, !tbaa !8
  %5 = load ptr, ptr %3, align 8, !tbaa !3
  %6 = getelementptr inbounds nuw %struct.Abc_Ntk_t_, ptr %5, i32 0, i32 9
  %7 = load ptr, ptr %6, align 8, !tbaa !53
  %8 = load i32, ptr %4, align 4, !tbaa !8
  %9 = call ptr @Vec_PtrEntry(ptr noundef %7, i32 noundef %8)
  ret ptr %9
}

; Function Attrs: nounwind uwtable
define ptr @Abc_NtkMiterQuantify(ptr noundef %0, i32 noundef %1, i32 noundef %2) #0 {
  %4 = alloca ptr, align 8
  %5 = alloca ptr, align 8
  %6 = alloca i32, align 4
  %7 = alloca i32, align 4
  %8 = alloca ptr, align 8
  %9 = alloca ptr, align 8
  %10 = alloca ptr, align 8
  %11 = alloca ptr, align 8
  %12 = alloca ptr, align 8
  %13 = alloca i32, align 4
  store ptr %0, ptr %5, align 8, !tbaa !3
  store i32 %1, ptr %6, align 4, !tbaa !8
  store i32 %2, ptr %7, align 4, !tbaa !8
  call void @llvm.lifetime.start.p0(i64 8, ptr %8) #9
  call void @llvm.lifetime.start.p0(i64 8, ptr %9) #9
  call void @llvm.lifetime.start.p0(i64 8, ptr %10) #9
  call void @llvm.lifetime.start.p0(i64 8, ptr %11) #9
  call void @llvm.lifetime.start.p0(i64 8, ptr %12) #9
  %14 = call ptr @Abc_NtkAlloc(i32 noundef 3, i32 noundef 3, i32 noundef 1)
  store ptr %14, ptr %8, align 8, !tbaa !3
  %15 = load ptr, ptr %5, align 8, !tbaa !3
  %16 = call ptr @Abc_NtkCo(ptr noundef %15, i32 noundef 0)
  %17 = call ptr @Abc_ObjName(ptr noundef %16)
  %18 = call ptr @Extra_UtilStrsav(ptr noundef %17)
  %19 = load ptr, ptr %8, align 8, !tbaa !3
  %20 = getelementptr inbounds nuw %struct.Abc_Ntk_t_, ptr %19, i32 0, i32 2
  store ptr %18, ptr %20, align 8, !tbaa !26
  %21 = load ptr, ptr %5, align 8, !tbaa !3
  %22 = call ptr @Abc_NtkCo(ptr noundef %21, i32 noundef 0)
  store ptr %22, ptr %9, align 8, !tbaa !28
  %23 = load ptr, ptr %5, align 8, !tbaa !3
  %24 = load ptr, ptr %5, align 8, !tbaa !3
  %25 = load ptr, ptr %8, align 8, !tbaa !3
  call void @Abc_NtkMiterPrepare(ptr noundef %23, ptr noundef %24, ptr noundef %25, i32 noundef 1, i32 noundef -1, i32 noundef 0)
  %26 = load ptr, ptr %8, align 8, !tbaa !3
  %27 = call ptr @Abc_AigConst1(ptr noundef %26)
  %28 = call ptr @Abc_ObjNot(ptr noundef %27)
  %29 = load ptr, ptr %5, align 8, !tbaa !3
  %30 = load i32, ptr %6, align 4, !tbaa !8
  %31 = call ptr @Abc_NtkCi(ptr noundef %29, i32 noundef %30)
  %32 = getelementptr inbounds nuw %struct.Abc_Obj_t_, ptr %31, i32 0, i32 7
  store ptr %28, ptr %32, align 8, !tbaa !30
  %33 = load ptr, ptr %5, align 8, !tbaa !3
  %34 = load ptr, ptr %8, align 8, !tbaa !3
  %35 = load ptr, ptr %9, align 8, !tbaa !28
  call void @Abc_NtkMiterAddCone(ptr noundef %33, ptr noundef %34, ptr noundef %35)
  %36 = load ptr, ptr %9, align 8, !tbaa !28
  %37 = call ptr @Abc_ObjFanin0(ptr noundef %36)
  %38 = getelementptr inbounds nuw %struct.Abc_Obj_t_, ptr %37, i32 0, i32 7
  %39 = load ptr, ptr %38, align 8, !tbaa !30
  %40 = load ptr, ptr %9, align 8, !tbaa !28
  %41 = call i32 @Abc_ObjFaninC0(ptr noundef %40)
  %42 = call ptr @Abc_ObjNotCond(ptr noundef %39, i32 noundef %41)
  store ptr %42, ptr %10, align 8, !tbaa !28
  %43 = load ptr, ptr %8, align 8, !tbaa !3
  %44 = call ptr @Abc_AigConst1(ptr noundef %43)
  %45 = load ptr, ptr %5, align 8, !tbaa !3
  %46 = load i32, ptr %6, align 4, !tbaa !8
  %47 = call ptr @Abc_NtkCi(ptr noundef %45, i32 noundef %46)
  %48 = getelementptr inbounds nuw %struct.Abc_Obj_t_, ptr %47, i32 0, i32 7
  store ptr %44, ptr %48, align 8, !tbaa !30
  %49 = load ptr, ptr %5, align 8, !tbaa !3
  %50 = load ptr, ptr %8, align 8, !tbaa !3
  %51 = load ptr, ptr %9, align 8, !tbaa !28
  call void @Abc_NtkMiterAddCone(ptr noundef %49, ptr noundef %50, ptr noundef %51)
  %52 = load ptr, ptr %9, align 8, !tbaa !28
  %53 = call ptr @Abc_ObjFanin0(ptr noundef %52)
  %54 = getelementptr inbounds nuw %struct.Abc_Obj_t_, ptr %53, i32 0, i32 7
  %55 = load ptr, ptr %54, align 8, !tbaa !30
  %56 = load ptr, ptr %9, align 8, !tbaa !28
  %57 = call i32 @Abc_ObjFaninC0(ptr noundef %56)
  %58 = call ptr @Abc_ObjNotCond(ptr noundef %55, i32 noundef %57)
  store ptr %58, ptr %11, align 8, !tbaa !28
  %59 = load i32, ptr %7, align 4, !tbaa !8
  %60 = icmp ne i32 %59, 0
  br i1 %60, label %61, label %68

61:                                               ; preds = %3
  %62 = load ptr, ptr %8, align 8, !tbaa !3
  %63 = getelementptr inbounds nuw %struct.Abc_Ntk_t_, ptr %62, i32 0, i32 30
  %64 = load ptr, ptr %63, align 8, !tbaa !27
  %65 = load ptr, ptr %10, align 8, !tbaa !28
  %66 = load ptr, ptr %11, align 8, !tbaa !28
  %67 = call ptr @Abc_AigOr(ptr noundef %64, ptr noundef %65, ptr noundef %66)
  store ptr %67, ptr %12, align 8, !tbaa !28
  br label %75

68:                                               ; preds = %3
  %69 = load ptr, ptr %8, align 8, !tbaa !3
  %70 = getelementptr inbounds nuw %struct.Abc_Ntk_t_, ptr %69, i32 0, i32 30
  %71 = load ptr, ptr %70, align 8, !tbaa !27
  %72 = load ptr, ptr %10, align 8, !tbaa !28
  %73 = load ptr, ptr %11, align 8, !tbaa !28
  %74 = call ptr @Abc_AigAnd(ptr noundef %71, ptr noundef %72, ptr noundef %73)
  store ptr %74, ptr %12, align 8, !tbaa !28
  br label %75

75:                                               ; preds = %68, %61
  %76 = load ptr, ptr %8, align 8, !tbaa !3
  %77 = call ptr @Abc_NtkPo(ptr noundef %76, i32 noundef 0)
  %78 = load ptr, ptr %12, align 8, !tbaa !28
  call void @Abc_ObjAddFanin(ptr noundef %77, ptr noundef %78)
  %79 = load ptr, ptr %8, align 8, !tbaa !3
  %80 = call i32 @Abc_NtkCheck(ptr noundef %79)
  %81 = icmp ne i32 %80, 0
  br i1 %81, label %85, label %82

82:                                               ; preds = %75
  %83 = call i32 (ptr, ...) @printf(ptr noundef @.str.4)
  %84 = load ptr, ptr %8, align 8, !tbaa !3
  call void @Abc_NtkDelete(ptr noundef %84)
  store ptr null, ptr %4, align 8
  store i32 1, ptr %13, align 4
  br label %87

85:                                               ; preds = %75
  %86 = load ptr, ptr %8, align 8, !tbaa !3
  store ptr %86, ptr %4, align 8
  store i32 1, ptr %13, align 4
  br label %87

87:                                               ; preds = %85, %82
  call void @llvm.lifetime.end.p0(i64 8, ptr %12) #9
  call void @llvm.lifetime.end.p0(i64 8, ptr %11) #9
  call void @llvm.lifetime.end.p0(i64 8, ptr %10) #9
  call void @llvm.lifetime.end.p0(i64 8, ptr %9) #9
  call void @llvm.lifetime.end.p0(i64 8, ptr %8) #9
  %88 = load ptr, ptr %4, align 8
  ret ptr %88
}