; Function Attrs: nounwind uwtable
define ptr @Abc_NtkMiterQuantify(ptr noundef %0, i32 noundef %1, i32 noundef %2) local_unnamed_addr #0 {
  %4 = tail call ptr @Abc_NtkAlloc(i32 noundef 3, i32 noundef 3, i32 noundef 1) #16
  %5 = getelementptr i8, ptr %0, i64 64
  %.val38 = load ptr, ptr %5, align 8, !tbaa !41
  %6 = getelementptr i8, ptr %.val38, i64 8
  %.val38.val = load ptr, ptr %6, align 8, !tbaa !28
  %7 = load ptr, ptr %.val38.val, align 8, !tbaa !29
  %8 = tail call ptr @Abc_ObjName(ptr noundef %7) #16
  %9 = tail call ptr @Extra_UtilStrsav(ptr noundef %8) #16
  %10 = getelementptr inbounds nuw i8, ptr %4, i64 8
  store ptr %9, ptr %10, align 8, !tbaa !24
  %.val37 = load ptr, ptr %5, align 8, !tbaa !41
  %11 = getelementptr i8, ptr %.val37, i64 8
  %.val37.val = load ptr, ptr %11, align 8, !tbaa !28
  %12 = load ptr, ptr %.val37.val, align 8, !tbaa !29
  tail call fastcc void @Abc_NtkMiterPrepare(ptr noundef %0, ptr noundef %0, ptr noundef %4, i32 noundef 1, i32 noundef -1, i32 noundef 0)
  %13 = tail call ptr @Abc_AigConst1(ptr noundef %4) #16
  %14 = ptrtoint ptr %13 to i64
  %15 = xor i64 %14, 1
  %16 = inttoptr i64 %15 to ptr
  %17 = getelementptr i8, ptr %0, i64 56
  %.val36 = load ptr, ptr %17, align 8, !tbaa !52
  %18 = getelementptr i8, ptr %.val36, i64 8
  %.val36.val = load ptr, ptr %18, align 8, !tbaa !28
  %19 = sext i32 %1 to i64
  %20 = getelementptr inbounds ptr, ptr %.val36.val, i64 %19
  %21 = load ptr, ptr %20, align 8, !tbaa !29
  %22 = getelementptr inbounds nuw i8, ptr %21, i64 64
  store ptr %16, ptr %22, align 8, !tbaa !37
  tail call void @Abc_NtkMiterAddCone(ptr noundef %0, ptr noundef %4, ptr noundef %12)
  %.val42 = load ptr, ptr %12, align 8, !tbaa !34
  %23 = getelementptr i8, ptr %12, i64 32
  %.val43 = load ptr, ptr %23, align 8, !tbaa !35
  %24 = getelementptr i8, ptr %.val42, i64 32
  %.val42.val = load ptr, ptr %24, align 8, !tbaa !25
  %.val43.val = load i32, ptr %.val43, align 4, !tbaa !36
  %25 = getelementptr i8, ptr %.val42.val, i64 8
  %.val42.val.val = load ptr, ptr %25, align 8, !tbaa !28
  %26 = sext i32 %.val43.val to i64
  %27 = getelementptr inbounds ptr, ptr %.val42.val.val, i64 %26
  %28 = load ptr, ptr %27, align 8, !tbaa !29
  %29 = getelementptr inbounds nuw i8, ptr %28, i64 64
  %30 = load ptr, ptr %29, align 8, !tbaa !37
  %31 = getelementptr i8, ptr %12, i64 20
  %.val45 = load i32, ptr %31, align 4
  %32 = ptrtoint ptr %30 to i64
  %33 = lshr i32 %.val45, 10
  %.lobit = and i32 %33, 1
  %34 = zext nneg i32 %.lobit to i64
  %35 = xor i64 %34, %32
  %36 = inttoptr i64 %35 to ptr
  %37 = tail call ptr @Abc_AigConst1(ptr noundef %4) #16
  %.val = load ptr, ptr %17, align 8, !tbaa !52
  %38 = getelementptr i8, ptr %.val, i64 8
  %.val.val = load ptr, ptr %38, align 8, !tbaa !28
  %39 = getelementptr inbounds ptr, ptr %.val.val, i64 %19
  %40 = load ptr, ptr %39, align 8, !tbaa !29
  %41 = getelementptr inbounds nuw i8, ptr %40, i64 64
  store ptr %37, ptr %41, align 8, !tbaa !37
  tail call void @Abc_NtkMiterAddCone(ptr noundef %0, ptr noundef %4, ptr noundef nonnull %12)
  %.val40 = load ptr, ptr %12, align 8, !tbaa !34
  %.val41 = load ptr, ptr %23, align 8, !tbaa !35
  %42 = getelementptr i8, ptr %.val40, i64 32
  %.val40.val = load ptr, ptr %42, align 8, !tbaa !25
  %.val41.val = load i32, ptr %.val41, align 4, !tbaa !36
  %43 = getelementptr i8, ptr %.val40.val, i64 8
  %.val40.val.val = load ptr, ptr %43, align 8, !tbaa !28
  %44 = sext i32 %.val41.val to i64
  %45 = getelementptr inbounds ptr, ptr %.val40.val.val, i64 %44
  %46 = load ptr, ptr %45, align 8, !tbaa !29
  %47 = getelementptr inbounds nuw i8, ptr %46, i64 64
  %48 = load ptr, ptr %47, align 8, !tbaa !37
  %.val44 = load i32, ptr %31, align 4
  %49 = ptrtoint ptr %48 to i64
  %50 = lshr i32 %.val44, 10
  %.lobit46 = and i32 %50, 1
  %51 = zext nneg i32 %.lobit46 to i64
  %52 = xor i64 %51, %49
  %53 = inttoptr i64 %52 to ptr
  %.not = icmp eq i32 %2, 0
  %54 = getelementptr inbounds nuw i8, ptr %4, i64 256
  %55 = load ptr, ptr %54, align 8, !tbaa !33
  br i1 %.not, label %58, label %56

56:                                               ; preds = %3
  %57 = tail call ptr @Abc_AigOr(ptr noundef %55, ptr noundef %36, ptr noundef %53) #16
  br label %60

58:                                               ; preds = %3
  %59 = tail call ptr @Abc_AigAnd(ptr noundef %55, ptr noundef %36, ptr noundef %53) #16
  br label %60

60:                                               ; preds = %58, %56
  %.0 = phi ptr [ %57, %56 ], [ %59, %58 ]
  %61 = getelementptr i8, ptr %4, i64 48
  %.val39 = load ptr, ptr %61, align 8, !tbaa !43
  %62 = getelementptr i8, ptr %.val39, i64 8
  %.val39.val = load ptr, ptr %62, align 8, !tbaa !28
  %63 = load ptr, ptr %.val39.val, align 8, !tbaa !29
  tail call void @Abc_ObjAddFanin(ptr noundef %63, ptr noundef %.0) #16
  %64 = tail call i32 @Abc_NtkCheck(ptr noundef nonnull %4) #16
  %.not35 = icmp eq i32 %64, 0
  br i1 %.not35, label %65, label %66

65:                                               ; preds = %60
  %puts = tail call i32 @puts(ptr nonnull dereferenceable(1) @str.4)
  tail call void @Abc_NtkDelete(ptr noundef nonnull %4) #16
  br label %66

66:                                               ; preds = %60, %65
  %.034 = phi ptr [ null, %65 ], [ %4, %60 ]
  ret ptr %.034
}